target datalayout = "e-m:e-p270:32:32-p271:32:32-p272:64:64-i64:64-i128:128-f80:128-n8:16:32:64-S128"
target triple = "x86_64-pc-linux-gnu"

; Function Attrs: inlinehint mustprogress nounwind uwtable
define linkonce_odr noundef signext i8 @_ZN6icu_775Grego10isLeapYearEi(i32 noundef %0) #4 comdat align 2 {
  %2 = alloca i32, align 4
  store i32 %0, ptr %2, align 4, !tbaa !17
  %3 = load i32, ptr %2, align 4, !tbaa !17
  %4 = and i32 %3, 3
  %5 = icmp eq i32 %4, 0
  br i1 %5, label %6, label %16

6:                                                ; preds = %1
  %7 = load i32, ptr %2, align 4, !tbaa !17
  %8 = srem i32 %7, 100
  %9 = icmp ne i32 %8, 0
  br i1 %9, label %14, label %10

10:                                               ; preds = %6
  %11 = load i32, ptr %2, align 4, !tbaa !17
  %12 = srem i32 %11, 400
  %13 = icmp eq i32 %12, 0
  br label %14

14:                                               ; preds = %10, %6
  %15 = phi i1 [ true, %6 ], [ %13, %10 ]
  br label %16

16:                                               ; preds = %14, %1
  %17 = phi i1 [ false, %1 ], [ %15, %14 ]
  %18 = zext i1 %17 to i8
  ret i8 %18
}

; Function Attrs: mustprogress uwtable
define internal noundef signext i8 @_ZN6icu_77L15isGregorianLeapEi(i32 noundef %0) #0 {
  %2 = alloca i32, align 4
  store i32 %0, ptr %2, align 4, !tbaa !17
  %3 = load i32, ptr %2, align 4, !tbaa !17
  %4 = call noundef signext i8 @_ZN6icu_775Grego10isLeapYearEi(i32 noundef %3)
  ret i8 %4
}

; Function Attrs: mustprogress uwtable
define noundef i32 @_ZNK6icu_7714IndianCalendar20handleGetMonthLengthEiiR10UErrorCode(ptr noundef nonnull align 8 dereferenceable(192) %0, i32 noundef %1, i32 noundef %2, ptr noundef nonnull align 4 dereferenceable(4) %3) unnamed_addr #0 align 2 {
  %5 = alloca i32, align 4
  %6 = alloca ptr, align 8
  %7 = alloca i32, align 4
  %8 = alloca i32, align 4
  %9 = alloca ptr, align 8
  store ptr %0, ptr %6, align 8, !tbaa !3
  store i32 %1, ptr %7, align 4, !tbaa !17
  store i32 %2, ptr %8, align 4, !tbaa !17
  store ptr %3, ptr %9, align 8, !tbaa !10
  %10 = load i32, ptr %8, align 4, !tbaa !17
  %11 = icmp slt i32 %10, 0
  br i1 %11, label %15, label %12

12:                                               ; preds = %4
  %13 = load i32, ptr %8, align 4, !tbaa !17
  %14 = icmp sgt i32 %13, 11
  br i1 %14, label %15, label %20

15:                                               ; preds = %12, %4
  %16 = load i32, ptr %8, align 4, !tbaa !17
  %17 = call noundef i32 @_ZN6icu_779ClockMath11floorDivideEiiPi(i32 noundef %16, i32 noundef 12, ptr noundef %8)
  %18 = load i32, ptr %7, align 4, !tbaa !17
  %19 = add nsw i32 %18, %17
  store i32 %19, ptr %7, align 4, !tbaa !17
  br label %20

20:                                               ; preds = %15, %12
  %21 = load i32, ptr %7, align 4, !tbaa !17
  %22 = add nsw i32 %21, 78
  %23 = call noundef signext i8 @_ZN6icu_77L15isGregorianLeapEi(i32 noundef %22)
  %24 = icmp ne i8 %23, 0
  br i1 %24, label %25, label %29

25:                                               ; preds = %20
  %26 = load i32, ptr %8, align 4, !tbaa !17
  %27 = icmp eq i32 %26, 0
  br i1 %27, label %28, label %29

28:                                               ; preds = %25
  store i32 31, ptr %5, align 4
  br label %37

29:                                               ; preds = %25, %20
  %30 = load i32, ptr %8, align 4, !tbaa !17
  %31 = icmp sge i32 %30, 1
  br i1 %31, label %32, label %36

32:                                               ; preds = %29
  %33 = load i32, ptr %8, align 4, !tbaa !17
  %34 = icmp sle i32 %33, 5
  br i1 %34, label %35, label %36

35:                                               ; preds = %32
  store i32 31, ptr %5, align 4
  br label %37

36:                                               ; preds = %32, %29
  store i32 30, ptr %5, align 4
  br label %37

37:                                               ; preds = %36, %35, %28
  %38 = load i32, ptr %5, align 4
  ret i32 %38
}