; Function Attrs: mustprogress uwtable
define noundef range(i32 30, 32) i32 @_ZNK6icu_7714IndianCalendar20handleGetMonthLengthEiiR10UErrorCode(ptr nonnull readnone align 8 captures(none) %0, i32 noundef %1, i32 noundef %2, ptr nonnull readnone align 4 captures(none) %3) unnamed_addr #0 align 2 {
  %5 = alloca i32, align 4
  store i32 %2, ptr %5, align 4, !tbaa !6
  %or.cond = icmp ugt i32 %2, 11
  br i1 %or.cond, label %6, label %9

6:                                                ; preds = %4
  %7 = call noundef i32 @_ZN6icu_779ClockMath11floorDivideEiiPi(i32 noundef %2, i32 noundef 12, ptr noundef nonnull %5)
  %8 = add nsw i32 %7, %1
  br label %9

9:                                                ; preds = %4, %6
  %.08 = phi i32 [ %8, %6 ], [ %1, %4 ]
  %10 = add nsw i32 %.08, 78
  %11 = and i32 %10, 3
  %12 = icmp eq i32 %11, 0
  br i1 %12, label %13, label %_ZN6icu_77L15isGregorianLeapEi.exit

13:                                               ; preds = %9
  %14 = srem i32 %10, 100
  %.not.i.i = icmp eq i32 %14, 0
  br i1 %.not.i.i, label %15, label %_ZN6icu_77L15isGregorianLeapEi.exit

15:                                               ; preds = %13
  %16 = srem i32 %10, 400
  %17 = icmp eq i32 %16, 0
  br label %_ZN6icu_77L15isGregorianLeapEi.exit

_ZN6icu_77L15isGregorianLeapEi.exit:              ; preds = %9, %13, %15
  %18 = phi i1 [ false, %9 ], [ true, %13 ], [ %17, %15 ]
  %19 = load i32, ptr %5, align 4
  %20 = icmp eq i32 %19, 0
  %or.cond3 = select i1 %18, i1 %20, i1 false
  %21 = add i32 %19, -1
  %or.cond5 = icmp ult i32 %21, 5
  %22 = select i1 %or.cond3, i1 true, i1 %or.cond5
  %.0 = select i1 %22, i32 31, i32 30
  ret i32 %.0
}